; Function Attrs: nounwind sspstrong uwtable
define internal fastcc range(i32 0, 2) i32 @parse_iso25(i64 noundef %0, i64 noundef %1) unnamed_addr #0 {
  %3 = load i64, ptr @parse_iso25.pat0, align 8, !tbaa !6
  %4 = icmp eq i64 %3, 4
  br i1 %4, label %5, label %8

5:                                                ; preds = %2
  %6 = tail call i64 @rb_reg_new(ptr noundef nonnull @parse_iso25.pat0_source, i64 noundef 25, i32 noundef 0) #13
  %7 = tail call i64 @rb_obj_freeze(i64 noundef %6) #13
  tail call void @rb_gc_register_mark_object(i64 noundef %6) #13
  store i64 %6, ptr @parse_iso25.pat0, align 8, !tbaa !6
  br label %8

8:                                                ; preds = %5, %2
  %9 = phi i64 [ %6, %5 ], [ %3, %2 ]
  %10 = load i64, ptr @parse_iso25.pat, align 8, !tbaa !6
  %11 = icmp eq i64 %10, 4
  br i1 %11, label %12, label %15

12:                                               ; preds = %8
  %13 = tail call i64 @rb_reg_new(ptr noundef nonnull @parse_iso25.pat_source, i64 noundef 25, i32 noundef 0) #13
  %14 = tail call i64 @rb_obj_freeze(i64 noundef %13) #13
  tail call void @rb_gc_register_mark_object(i64 noundef %13) #13
  store i64 %13, ptr @parse_iso25.pat, align 8, !tbaa !6
  %.pre = load i64, ptr @parse_iso25.pat0, align 8, !tbaa !6
  br label %15

15:                                               ; preds = %8, %12
  %16 = phi i64 [ %9, %8 ], [ %.pre, %12 ]
  %.pr.i = load i64, ptr @parse_iso25.rbimpl_id, align 8, !tbaa !6
  %.not4.i = icmp eq i64 %.pr.i, 0
  br i1 %.not4.i, label %.lr.ph.i, label %rbimpl_intern_const.exit

.lr.ph.i:                                         ; preds = %15, %.lr.ph.i
  %17 = tail call i64 @rb_intern2(ptr noundef nonnull @.str.41, i64 noundef 5) #13
  store i64 %17, ptr @parse_iso25.rbimpl_id, align 8, !tbaa !6
  %.not.i = icmp eq i64 %17, 0
  br i1 %.not.i, label %.lr.ph.i, label %rbimpl_intern_const.exit, !llvm.loop !36

rbimpl_intern_const.exit:                         ; preds = %.lr.ph.i, %15
  %.lcssa.i = phi i64 [ %.pr.i, %15 ], [ %17, %.lr.ph.i ]
  %18 = tail call i64 (i64, i64, i32, ...) @rb_funcall(i64 noundef %16, i64 noundef %.lcssa.i, i32 noundef 1, i64 noundef %0) #13
  %19 = icmp eq i64 %18, 4
  br i1 %19, label %20, label %24

20:                                               ; preds = %rbimpl_intern_const.exit
  %21 = tail call i64 @rb_str_new_static(ptr noundef nonnull @.str.7, i64 noundef 1) #13
  %22 = load i64, ptr @parse_iso25.pat, align 8, !tbaa !6
  %23 = tail call fastcc i32 @subx(i64 noundef %0, i64 noundef %21, i64 noundef %22, i64 noundef %1, ptr noundef nonnull @parse_iso25_cb)
  br label %24

24:                                               ; preds = %rbimpl_intern_const.exit, %20
  %.0 = phi i32 [ %23, %20 ], [ 0, %rbimpl_intern_const.exit ]
  ret i32 %.0
}